target datalayout = "e-m:e-p270:32:32-p271:32:32-p272:64:64-i64:64-i128:128-f80:128-n8:16:32:64-S128"
target triple = "x86_64-pc-linux-gnu"

%struct.egg_handle = type { ptr, i64, i64, i32, i32, ptr, ptr, i64, ptr, i64, ptr, i64, ptr }
%struct.cl_fmap = type { ptr, ptr, ptr, i64, i64, i64, i64, i8, i8, i8, i64, i64, i64, i64, ptr, ptr, ptr, ptr, ptr, ptr, ptr, i8, [16 x i8], i8, [20 x i8], i8, [32 x i8], ptr, ptr }

@.str.95 = private unnamed_addr constant [34 x i8] c"cli_egg_skip_file: Invalid args!\0A\00", align 1
@.str.96 = private unnamed_addr constant [43 x i8] c"cli_egg_skip_file: Invalid handle values!\0A\00", align 1
@.str.97 = private unnamed_addr constant [67 x i8] c"cli_egg_skip_file: File index exceeds number of files in archive!\0A\00", align 1
@.str.98 = private unnamed_addr constant [34 x i8] c"cli_egg_skip_file: File skipped.\0A\00", align 1

; Function Attrs: nounwind uwtable
define i32 @cli_egg_skip_file(ptr noundef %0) #0 {
  %2 = alloca i32, align 4
  %3 = alloca ptr, align 8
  %4 = alloca i32, align 4
  %5 = alloca ptr, align 8
  store ptr %0, ptr %3, align 8
  store i32 27, ptr %4, align 4
  store ptr null, ptr %5, align 8
  %6 = load ptr, ptr %3, align 8
  %7 = icmp ne ptr %6, null
  br i1 %7, label %9, label %8

8:                                                ; preds = %1
  call void (ptr, ...) @cli_errmsg(ptr noundef @.str.95)
  store i32 3, ptr %2, align 4
  br label %58

9:                                                ; preds = %1
  %10 = load ptr, ptr %3, align 8
  store ptr %10, ptr %5, align 8
  %11 = load ptr, ptr %5, align 8
  %12 = icmp ne ptr %11, null
  br i1 %12, label %13, label %28

13:                                               ; preds = %9
  %14 = load ptr, ptr %5, align 8
  %15 = getelementptr inbounds %struct.egg_handle, ptr %14, i32 0, i32 0
  %16 = load ptr, ptr %15, align 8
  %17 = icmp ne ptr %16, null
  br i1 %17, label %18, label %28

18:                                               ; preds = %13
  %19 = load ptr, ptr %5, align 8
  %20 = getelementptr inbounds %struct.egg_handle, ptr %19, i32 0, i32 1
  %21 = load i64, ptr %20, align 8
  %22 = load ptr, ptr %5, align 8
  %23 = getelementptr inbounds %struct.egg_handle, ptr %22, i32 0, i32 0
  %24 = load ptr, ptr %23, align 8
  %25 = getelementptr inbounds %struct.cl_fmap, ptr %24, i32 0, i32 13
  %26 = load i64, ptr %25, align 8
  %27 = icmp ugt i64 %21, %26
  br label %28

28:                                               ; preds = %18, %13, %9
  %29 = phi i1 [ true, %13 ], [ true, %9 ], [ %27, %18 ]
  %30 = select i1 %29, i32 3, i32 0
  %31 = icmp ne i32 0, %30
  br i1 %31, label %32, label %33

32:                                               ; preds = %28
  call void (ptr, ...) @cli_errmsg(ptr noundef @.str.96)
  store i32 3, ptr %4, align 4
  br label %56

33:                                               ; preds = %28
  %34 = load ptr, ptr %5, align 8
  %35 = getelementptr inbounds %struct.egg_handle, ptr %34, i32 0, i32 2
  %36 = load i64, ptr %35, align 8
  %37 = load ptr, ptr %5, align 8
  %38 = getelementptr inbounds %struct.egg_handle, ptr %37, i32 0, i32 7
  %39 = load i64, ptr %38, align 8
  %40 = icmp uge i64 %36, %39
  br i1 %40, label %41, label %42

41:                                               ; preds = %33
  call void (ptr, ...) @cli_warnmsg(ptr noundef @.str.97)
  store i32 22, ptr %4, align 4
  br label %56

42:                                               ; preds = %33
  %43 = load ptr, ptr %5, align 8
  %44 = getelementptr inbounds %struct.egg_handle, ptr %43, i32 0, i32 2
  %45 = load i64, ptr %44, align 8
  %46 = add i64 %45, 1
  store i64 %46, ptr %44, align 8
  %47 = load ptr, ptr %5, align 8
  %48 = getelementptr inbounds %struct.egg_handle, ptr %47, i32 0, i32 2
  %49 = load i64, ptr %48, align 8
  %50 = load ptr, ptr %5, align 8
  %51 = getelementptr inbounds %struct.egg_handle, ptr %50, i32 0, i32 7
  %52 = load i64, ptr %51, align 8
  %53 = icmp uge i64 %49, %52
  br i1 %53, label %54, label %55

54:                                               ; preds = %42
  store i32 22, ptr %4, align 4
  br label %55

55:                                               ; preds = %54, %42
  call void (ptr, ...) @cli_dbgmsg(ptr noundef @.str.98)
  store i32 0, ptr %4, align 4
  br label %56

56:                                               ; preds = %55, %41, %32
  %57 = load i32, ptr %4, align 4
  store i32 %57, ptr %2, align 4
  br label %58

58:                                               ; preds = %56, %8
  %59 = load i32, ptr %2, align 4
  ret i32 %59
}