; Function Attrs: nounwind uwtable
define noundef i32 @cli_egg_skip_file(ptr noundef %0) local_unnamed_addr #1 {
  %.not = icmp eq ptr %0, null
  br i1 %.not, label %2, label %3

2:                                                ; preds = %1
  tail call void (ptr, ...) @cli_errmsg(ptr noundef nonnull @.str.95) #11
  br label %19

3:                                                ; preds = %1
  %4 = load ptr, ptr %0, align 8
  %.not16 = icmp eq ptr %4, null
  br i1 %.not16, label %.critedge, label %5

5:                                                ; preds = %3
  %6 = getelementptr inbounds i8, ptr %0, i64 8
  %7 = load i64, ptr %6, align 8
  %8 = getelementptr inbounds i8, ptr %4, i64 88
  %9 = load i64, ptr %8, align 8
  %10 = icmp ugt i64 %7, %9
  br i1 %10, label %.critedge, label %11

.critedge:                                        ; preds = %3, %5
  tail call void (ptr, ...) @cli_errmsg(ptr noundef nonnull @.str.96) #11
  br label %19

11:                                               ; preds = %5
  %12 = getelementptr inbounds i8, ptr %0, i64 16
  %13 = load i64, ptr %12, align 8
  %14 = getelementptr inbounds i8, ptr %0, i64 48
  %15 = load i64, ptr %14, align 8
  %.not17 = icmp ult i64 %13, %15
  br i1 %.not17, label %17, label %16

16:                                               ; preds = %11
  tail call void (ptr, ...) @cli_warnmsg(ptr noundef nonnull @.str.97) #11
  br label %19

17:                                               ; preds = %11
  %18 = add nuw i64 %13, 1
  store i64 %18, ptr %12, align 8
  tail call void (ptr, ...) @cli_dbgmsg(ptr noundef nonnull @.str.98) #11
  br label %19

19:                                               ; preds = %.critedge, %16, %17, %2
  %.012 = phi i32 [ 3, %2 ], [ 3, %.critedge ], [ 22, %16 ], [ 0, %17 ]
  ret i32 %.012
}